target datalayout = "e-m:e-p270:32:32-p271:32:32-p272:64:64-i64:64-i128:128-f80:128-n8:16:32:64-S128"
target triple = "x86_64-pc-linux-gnu"

%struct.eio_obj = type { i32, ptr, ptr, i8 }

@.str.4 = private unnamed_addr constant [22 x i8] c"%s: shutdown %d fd %d\00", align 1
@__func__.eio_message_socket_readable = private unnamed_addr constant [28 x i8] c"eio_message_socket_readable\00", align 1
@.str.5 = private unnamed_addr constant [18 x i8] c"  false, shutdown\00", align 1
@.str.6 = private unnamed_addr constant [8 x i8] c"  false\00", align 1

; Function Attrs: nounwind uwtable
define dso_local zeroext i1 @eio_message_socket_readable(ptr noundef %0) #0 {
  %2 = alloca i1, align 1
  %3 = alloca ptr, align 8
  store ptr %0, ptr %3, align 8
  br label %4

4:                                                ; preds = %1
  br label %5

5:                                                ; preds = %4
  %6 = call i32 @get_log_level()
  %7 = icmp sge i32 %6, 7
  br i1 %7, label %8, label %17

8:                                                ; preds = %5
  %9 = load ptr, ptr %3, align 8
  %10 = getelementptr inbounds nuw %struct.eio_obj, ptr %9, i32 0, i32 3
  %11 = load i8, ptr %10, align 8, !range !10, !noundef !11
  %12 = trunc i8 %11 to i1
  %13 = zext i1 %12 to i32
  %14 = load ptr, ptr %3, align 8
  %15 = getelementptr inbounds nuw %struct.eio_obj, ptr %14, i32 0, i32 0
  %16 = load i32, ptr %15, align 8
  call void (i32, ptr, ...) @log_var(i32 noundef 7, ptr noundef @.str.4, ptr noundef @__func__.eio_message_socket_readable, i32 noundef %13, i32 noundef %16)
  br label %17

17:                                               ; preds = %8, %5
  br label %18

18:                                               ; preds = %17
  br label %19

19:                                               ; preds = %18
  %20 = load ptr, ptr %3, align 8
  %21 = getelementptr inbounds nuw %struct.eio_obj, ptr %20, i32 0, i32 3
  %22 = load i8, ptr %21, align 8, !range !10, !noundef !11
  %23 = trunc i8 %22 to i1
  %24 = zext i1 %23 to i32
  %25 = icmp eq i32 %24, 1
  br i1 %25, label %26, label %56

26:                                               ; preds = %19
  %27 = load ptr, ptr %3, align 8
  %28 = getelementptr inbounds nuw %struct.eio_obj, ptr %27, i32 0, i32 0
  %29 = load i32, ptr %28, align 8
  %30 = icmp ne i32 %29, -1
  br i1 %30, label %31, label %46

31:                                               ; preds = %26
  br label %32

32:                                               ; preds = %31
  br label %33

33:                                               ; preds = %32
  %34 = call i32 @get_log_level()
  %35 = icmp sge i32 %34, 6
  br i1 %35, label %36, label %37

36:                                               ; preds = %33
  call void (i32, ptr, ...) @log_var(i32 noundef 6, ptr noundef @.str.5)
  br label %37

37:                                               ; preds = %36, %33
  br label %38

38:                                               ; preds = %37
  br label %39

39:                                               ; preds = %38
  %40 = load ptr, ptr %3, align 8
  %41 = getelementptr inbounds nuw %struct.eio_obj, ptr %40, i32 0, i32 0
  %42 = load i32, ptr %41, align 8
  %43 = call i32 @close(i32 noundef %42)
  %44 = load ptr, ptr %3, align 8
  %45 = getelementptr inbounds nuw %struct.eio_obj, ptr %44, i32 0, i32 0
  store i32 -1, ptr %45, align 8
  br label %55

46:                                               ; preds = %26
  br label %47

47:                                               ; preds = %46
  br label %48

48:                                               ; preds = %47
  %49 = call i32 @get_log_level()
  %50 = icmp sge i32 %49, 6
  br i1 %50, label %51, label %52

51:                                               ; preds = %48
  call void (i32, ptr, ...) @log_var(i32 noundef 6, ptr noundef @.str.6)
  br label %52

52:                                               ; preds = %51, %48
  br label %53

53:                                               ; preds = %52
  br label %54

54:                                               ; preds = %53
  br label %55

55:                                               ; preds = %54, %39
  store i1 false, ptr %2, align 1
  br label %57

56:                                               ; preds = %19
  store i1 true, ptr %2, align 1
  br label %57

57:                                               ; preds = %56, %55
  %58 = load i1, ptr %2, align 1
  ret i1 %58
}