; Function Attrs: nounwind uwtable
define dso_local noundef zeroext i1 @eio_message_socket_readable(ptr noundef captures(none) %0) #0 {
  %2 = tail call i32 @get_log_level() #10
  %3 = icmp sgt i32 %2, 6
  br i1 %3, label %4, label %9

4:                                                ; preds = %1
  %5 = getelementptr inbounds nuw i8, ptr %0, i64 24
  %6 = load i8, ptr %5, align 8, !range !14, !noundef !15
  %7 = zext nneg i8 %6 to i32
  %8 = load i32, ptr %0, align 8
  tail call void (i32, ptr, ...) @log_var(i32 noundef 7, ptr noundef nonnull @.str.4, ptr noundef nonnull @__func__.eio_message_socket_readable, i32 noundef %7, i32 noundef %8) #10
  br label %9

9:                                                ; preds = %4, %1
  %10 = getelementptr inbounds nuw i8, ptr %0, i64 24
  %11 = load i8, ptr %10, align 8, !range !14, !noundef !15
  %12 = trunc nuw i8 %11 to i1
  br i1 %12, label %13, label %24

13:                                               ; preds = %9
  %14 = load i32, ptr %0, align 8
  %.not = icmp eq i32 %14, -1
  %15 = tail call i32 @get_log_level() #10
  %16 = icmp sgt i32 %15, 5
  br i1 %.not, label %22, label %17

17:                                               ; preds = %13
  br i1 %16, label %18, label %19

18:                                               ; preds = %17
  tail call void (i32, ptr, ...) @log_var(i32 noundef 6, ptr noundef nonnull @.str.5) #10
  br label %19

19:                                               ; preds = %18, %17
  %20 = load i32, ptr %0, align 8
  %21 = tail call i32 @close(i32 noundef %20) #10
  store i32 -1, ptr %0, align 8
  br label %24

22:                                               ; preds = %13
  br i1 %16, label %23, label %24

23:                                               ; preds = %22
  tail call void (i32, ptr, ...) @log_var(i32 noundef 6, ptr noundef nonnull @.str.6) #10
  br label %24

24:                                               ; preds = %9, %19, %23, %22
  %.0 = xor i1 %12, true
  ret i1 %.0
}